_Z10DrawLine3D4Vec3S_jii
_Z10ahci_writeP8HBA_PORTjPv
_Z10fat32_initiPh
_Z10free_imagev
_Z10hex_to_strjPc
_Z10hex_to_strtPc
_Z10init_mousev
_Z10int_to_striPc
_Z10int_to_strjPc
_Z10mouse_readv
_Z10mouse_waith
_Z10play_soundji
_Z10str_startsPKcS0_
_Z10toggle_appi
_Z11analyze_gptPh
_Z11analyze_mbrPh
_Z11analyze_vbrPh
_Z11byte_to_hexhPc
_Z11create_taskPFvvE
_Z11debug_printPKc
_Z11mmio_read32m
_Z11mouse_writeh
_Z11process_cmdPcP6Window
_Z11sglDrawCubef
_Z11syscall_isrv
_Z12DrawPlanet3D4Vec3fjii
_Z12DrawTriangle4Vec2S_S_j
_Z12DrawTriangleiiiiiij
_Z12DrawWaveformiiii
_Z12EdgeFunction4Vec2S_ii
_Z12TBA_ReadBitsP12TBA_BitStatei
_Z12decode_imagev
_Z12focus_windowi
_Z12handle_inputv
_Z12is_over_rectiiiiii
_Z12kernel_panicPKc
_Z12keyboard_isrP15interrupt_frame
_Z12mmio_write32mj
_Z12os2_pci_readjjjj
_Z12pci_scan_allv
_Z12read_pci_reghhhh
_Z12rtl8139_initj
_Z12send_tcp_synjt
_Z12set_idt_gateimh
_Z12sys_pci_readjjjj
_Z13DrawActiveSuniii
_Z13DrawGlassRectiiiiij
_Z13DrawGoldenSuniii
_Z13ahci_identifyj
_Z13ahci_read_mbrv
_Z13cosmos_randomv
_Z13get_cpu_brandv
_Z13ip_str_to_u32PKc
_Z13pci_find_uhciv
_Z13play_wav_filei
_Z13sglDrawSpherefi
_Z13sys_idle_taskv
_Z13system_rebootv
_Z13write_pci_reghhhhj
_Z14DrawAeroCursorii
_Z14DrawTriangle3D4Vec3S_S_jii
_Z14ahci_init_portP8HBA_PORTi
_Z14audio_callbackPvPhi
_Z14decompress_tbaPhiS_i
_Z14disk_read_autojm
_Z14execute_kernelv
_Z14fat32_list_diriPhP16FAT32_ParsedFileihi
_Z14fat32_list_diriPhPvihi
_Z14hex_str_to_intPc
_Z14os2_smart_scanv
_Z14pcie_read_mmiojjjj
_Z14run_holyspiritiiiib
_Z14scan_pci_classhPcPKc
_Z14send_dns_queryv
_Z14sglDrawPyramidf
_Z14startup_melodyv
_Z15DrawDenseGalaxyiii
_Z15DrawRoundWindowiiij
_Z15DrawRoundedRectiiiiij
_Z15background_taskv
_Z15disk_write_autojm
_Z15force_find_ahciv
_Z15fs_read_sectorsijPhi
_Z15nic_select_nextv
_Z15play_ac97_flarev
_Z15play_earthquakei
_Z15run_pong_engineiiiib
_Z15scan_partitionsv
_Z15scan_pci_drivesP6Window
_Z15set_ac97_volumet
_Z15system_init_usbv
_Z15system_shutdownv
_Z15usb_mount_drivev
_Z16analyze_mft_rootPh
_Z16ata_write_sectorthjPh
_Z16get_ascii_qwertzh
_Z16get_system_ticksv
_Z16intel_e1000_initjt
_Z16load_and_run_binjj
_Z16read_mac_addressPc
_Z16tba_record_framethhhh
_Z17DrawOrganicPlanetiiij
_Z17ahci_read_sectorsiiij
_Z17ahci_read_sectorsjm
_Z17find_and_init_usbv
_Z17pci_scan_advancedv
_Z17play_ac97_suctionv
_Z17run_blobby_engineiiiib
_Z17send_cosmos_blockjPh
_Z18ahci_write_sectorsiiij
_Z18ahci_write_sectorsjm
_Z18disable_nx_for_appv
_Z18handle_global_keysc
_Z18has_free_task_slotv
_Z18init_acpi_and_pciev
_Z18internal_test_taskv
_Z18run_browser_engineiiiib
_Z18uhci_bulk_transferiiiji
_Z19analyze_gpt_entriesPh
_Z19diagnose_ahci_portsv
_Z19dynamic_task_workerv
_Z19fat32_read_root_diri
_Z19run_emulator_engineiiiib
_Z20bare_metal_port_initi
_Z20play_ac97_earthquakev
_Z20usb_bot_get_capacityiii
_Z20usb_bot_get_capacityiiiPi
_Z20usb_bot_read_sectorsjjjjhj
_Z20usb_enumerate_deviceii
_Z21ahci_get_raw_identifyiPt
_Z21find_dynamic_ahci_barv
_Z21run_smash_cats_engineiiiib
_Z21update_mouse_positioniii
_Z23ahci_save_file_completeP8HBA_PORTPKcPh
_Z24init_builtin_device_treev
_Z26xhci_poll_events_and_mousev
_Z2hlj
_Z2hst
_Z3Cosi
_Z3Putiij
_Z3Sini
_Z3chkPvi
_Z3inbt
_Z3inlt
_Z3inwt
_Z4Swapv
_Z4TextiiPKcjb
_Z4inswtPvj
_Z4outbth
_Z4outltj
_Z4outwtt
_Z5Clearv
_Z5TextCiiPKcjb
_Z5outswtPKvj
_Z5yieldv
_Z6get_idPKc
_Z7RotateX4Vec3f
_Z7RotateY4Vec3f
_Z7ahci_rwjmi
_Z7bcd2binh
_Z7fs_initv
_Z7is_overiiiii
_Z7mem_setPvhj
_Z7pit_isrv
_Z7str_catPcPKc
_Z7str_cmpPKcS0_
_Z7str_cpyPcPKc
_Z7str_lenPKc
_Z8DrawChariicjb
_Z8DrawFaceiiii
_Z8DrawIconiij
_Z8DrawLineiiiij
_Z8PutAlphaiij
_Z8PutPixeljjj
_Z8bare_cosf
_Z8bare_sinf
_Z8c8_resetv
_Z8cb_buildPhthhhh
_Z8init_pitj
_Z8int_sqrti
_Z8mbr_scanv
_Z8pci_readhhhh
_Z8pci_readjjjj
_Z8pci_readtttt
_Z8read_rtcv
_Z8send_udpjttPKc
_Z8sleep_msj
_Z9Draw3DCatfhhhfiii
_Z9Project3D4Vec3ii
_Z9ahci_initv
_Z9ahci_readP8HBA_PORTjPv
_Z9boot_logov
_Z9dummy_isrP15interrupt_frame
_Z9emu_chip8v
_Z9get_asciih
_Z9init_ac97v
_Z9init_heapv
_Z9pci_writehhhhj
_Z9pci_writettttj
_Z9play_freqj
_Z9print_winP6WindowPKc
_Z9remap_picv
_Z9str_equalPKcS0_
_Z9uhci_initj
_ZdaPv
_ZdlPv
_ZdlPvm
_Znam
_Znwm
__TMC_END__
__bss_end
__bss_start
__data_start
__dso_handle
_edata
_end
_fini
_init
_start
ac97_bus_port
ac97_mixer_port
active_ahci_bar5
active_drive_idx
active_file_idx
active_file_lba
active_mode
active_nic_idx
active_sata_port
active_tab
active_vm
ahci_found_ports_bitmask
ahci_mount_drive
app_bin
app_bin_len
app_mouse_x
app_mouse_y
app_overlay_buffer
app_window_active
app_window_buffer
ata_base
bare_metal_ahci_mem
bb
boot_frame
browser_content_length
browser_download_buffer
browser_download_complete
browser_download_len
browser_tcp
browser_url
bv_ball_vx
bv_ball_vy
bv_ball_x
bv_ball_y
bv_diff
bv_last_touch
bv_mode
bv_p1_vy
bv_p1_x
bv_p1_y
bv_p2_vy
bv_p2_x
bv_p2_y
bv_score1
bv_score2
bv_state
bv_touches
c8_pc
c8_ram
c8_reset
c8_state
camera_fov
camera_z_offset
cartridge_end
cartridge_start
cfs_files
check_incoming
click_consumed
clip_max_x
clip_max_y
clip_min_x
clip_min_y
cmd_idx
cmd_input
cmd_input_buf
cmd_input_idx
cmd_last_out
cmd_lines
cmd_status
cosmos_main
cpu_brand
current_folder_id
current_folder_view_idx
current_gpu_idx
current_open_file
current_path_id
current_storage_idx
current_task
current_volume
decode_image
detected_port_count
detected_ports
disable_nx_for_app
drag_off_x
drag_off_y
drag_win
drive_count
drive_total_gb
drive_used_kb
drives
drop_active
drop_name
drop_stat
drop_type
drop_value
drop_x
drop_z
dsk_mgr_opened
dsk_selection
dsk_view
e1000_mmio_base
emu_chip8
enemy_armor_idx
enemy_color_idx
enemy_face_idx
enemy_pattern_idx
enemy_weapon_idx
fat32_root_lba
fb
file_selection
file_table
folder_name_idx
found_nics
frame
free
free_image
galaxy_expansion
galaxy_open
gateway_ip
genesis_tab
global_ahci_abar
global_cam_rot_x
global_cam_rot_y
global_xhci_base_addr
gpt_partition_count
gpt_partition_lba
gpt_partition_starts
gpu_count
hda_base_addr
hda_codec_id
hda_dac_nid
hda_debug_c0_resp
hda_pin_nid
heap_head
hw_disk
hw_gpu
hw_gpu_list
hw_net
hw_storage
hw_storage_list
hw_usb
idt
idt_ptr
input_cooldown
intel_mem_base
ip_address
is_app_running
is_mounted
is_ntfs
kernel_main
kernel_main64
kernel_save_browser_download
kernel_save_download
key_code
key_new
key_ready
key_scancode
key_shift
last_app_key
last_click_time
last_key
last_mouse_x
last_mouse_y
last_window_click
linux_current_freq
linux_mdown
linux_mx
linux_my
linux_scancode
linux_sound_duration
linux_wav_buffer
linux_wav_len
linux_wav_pos
logitech_found
mac_addr
mac_str
main
malloc
mbr_info_text
mbr_start_lba
meow_timer
mft_start_lba
mirror_count
mirror_list
mirror_scanned
mouse_byte
mouse_cycle
mouse_down
mouse_just_pressed
mouse_left
mouse_right_down
mouse_sens
mouse_sub_x
mouse_sub_y
mouse_x
mouse_y
net_check_link
net_mask
new_folder_name
nic_count
note_buf
note_c
note_r
num_tasks
open_browser_save_as
oracle_db
oracle_entry_count
os2_net_bar0
os2_net_device
os2_net_vendor
os2_ram_address
pci_dev_count
pcie_base_addr
pitch
pkg_download_active
pkg_download_execute
pkg_output_win_ptr
pkg_target_ip
pkg_target_port
planets
play_hda_earthquake
play_hda_freq
play_hda_wav
play_linux_freq
play_linux_sound
player_armor_idx
player_color_idx
player_face_idx
player_pattern_idx
player_weapon_idx
pong_ball_x
pong_ball_y
pong_diff
pong_mode
pong_p1_y
pong_p2_y
pong_score1
pong_score2
pong_state
pong_vel_x
pong_vel_y
pulse_timer
renaming_file_idx
resize_win
rtc_day
rtc_h
rtc_m
rtc_mon
rtc_year
rtl_io_base
rx_buffer_rtl
rx_idx_rtl
safe_app_buffer
save_as_mode
save_filename
save_name_idx
save_part_sel
save_step
save_timestamp
sc_attack_timer
sc_cam_dist
sc_cam_rot_x
sc_cam_rot_y
sc_cat_rot
sc_cat_x
sc_cat_z
sc_enemy_attack_timer
sc_enemy_hit_timer
sc_enemy_hp
sc_enemy_rot
sc_enemy_x
sc_enemy_z
sc_last_mx
sc_last_my
sc_player_hit_timer
sc_player_hp
sc_state
scan_partitions
schedule
screen_h
screen_pitch
screen_w
selected_drive_idx
send_arp_ping
send_dhcp_discover
send_dns_query
senses_tab
sglBegin
sglClear
sglClearDepth
sglColor3f
sglColor3ub
sglDisable
sglEnable
sglEnd
sglLoadIdentity
sglPopMatrix
sglPushMatrix
sglRotatef
sglScalef
sglTranslatef
sglVertex3f
sglViewport
shake_timer
show_oracle
sleep_labels
sleep_mode_idx
sound_muted
stars
storage_count
sx_off
sy_off
sys_hw
sys_lang
sys_max_items
sys_menu_selection
sys_selected_item
sys_theme
syscall_dispatcher
system_ticks
system_timer_ticks
tab_buffers
tab_files
task_quantum
tasks
telemetry_block
touch_mode
tx_buffer
tx_cur
uhci_base_port
usb_detected
usb_io_base
usb_mouse_callback
user_name
user_programs
v_cx
v_cy
webcam_active
webcam_model
wifi_pass
wifi_pass_idx
wifi_selected
wifi_ssids
wifi_state
win_z
windows
z_blocked
